; Function Attrs: mustprogress nofree norecurse nosync nounwind willreturn memory(read, inaccessiblemem: none) uwtable
define noundef nonnull align 8 dereferenceable(2384) ptr @_ZNK9AtomProxy12moleculeTypeEv(ptr nocapture noundef nonnull readonly align 8 dereferenceable(8) %0) local_unnamed_addr #2 align 2 {
  %2 = load ptr, ptr %0, align 8
  %3 = load ptr, ptr %2, align 8
  %4 = getelementptr inbounds i8, ptr %3, i64 112
  %5 = getelementptr inbounds i8, ptr %3, i64 136
  %6 = getelementptr inbounds i8, ptr %2, i64 8
  %7 = load i64, ptr %6, align 8
  %8 = load ptr, ptr %5, align 8
  %9 = getelementptr inbounds %struct.gmx_molblock_t, ptr %8, i64 %7
  %10 = load i32, ptr %9, align 8
  %11 = sext i32 %10 to i64
  %12 = load ptr, ptr %4, align 8
  %13 = getelementptr inbounds %struct.gmx_moltype_t, ptr %12, i64 %11
  ret ptr %13
}